; Function Attrs: nounwind uwtable
define dso_local range(i32 -2147483647, 32768) i32 @attnameAttNum(ptr noundef readonly captures(none) %0, ptr noundef %1, i1 noundef zeroext %2) local_unnamed_addr #0 {
  %4 = getelementptr inbounds nuw i8, ptr %0, i64 56
  %5 = load ptr, ptr %4, align 8
  %6 = getelementptr inbounds nuw i8, ptr %5, i64 116
  %7 = load i16, ptr %6, align 4
  %8 = icmp sgt i16 %7, 0
  br i1 %8, label %.lr.ph, label %._crit_edge

.lr.ph:                                           ; preds = %3
  %9 = getelementptr inbounds nuw i8, ptr %0, i64 64
  br label %10

10:                                               ; preds = %.lr.ph, %.thread
  %indvars.iv = phi i64 [ 0, %.lr.ph ], [ %indvars.iv.next, %.thread ]
  %11 = load ptr, ptr %9, align 8
  %12 = load i32, ptr %11, align 8
  %13 = sext i32 %12 to i64
  %14 = shl nsw i64 %13, 4
  %15 = getelementptr i8, ptr %11, i64 %14
  %16 = getelementptr i8, ptr %15, i64 24
  %17 = getelementptr inbounds nuw %struct.FormData_pg_attribute, ptr %16, i64 %indvars.iv
  %18 = getelementptr inbounds nuw i8, ptr %17, i64 4
  %19 = tail call i32 @namestrcmp(ptr noundef nonnull %18, ptr noundef %1) #11
  %20 = icmp eq i32 %19, 0
  br i1 %20, label %21, label %.thread

21:                                               ; preds = %10
  %22 = getelementptr inbounds nuw i8, ptr %17, i64 91
  %23 = load i8, ptr %22, align 1, !range !4, !noundef !5
  %24 = trunc nuw i8 %23 to i1
  br i1 %24, label %.thread, label %.loopexit

.thread:                                          ; preds = %10, %21
  %indvars.iv.next = add nuw nsw i64 %indvars.iv, 1
  %25 = load ptr, ptr %4, align 8
  %26 = getelementptr inbounds nuw i8, ptr %25, i64 116
  %27 = load i16, ptr %26, align 4
  %28 = sext i16 %27 to i64
  %29 = icmp slt i64 %indvars.iv.next, %28
  br i1 %29, label %10, label %._crit_edge, !llvm.loop !31

._crit_edge:                                      ; preds = %.thread, %3
  br i1 %2, label %30, label %specialAttNum.exit.thread

30:                                               ; preds = %._crit_edge
  %31 = tail call ptr @SystemAttributeByName(ptr noundef %1) #11
  %.not.i = icmp eq ptr %31, null
  br i1 %.not.i, label %specialAttNum.exit.thread, label %specialAttNum.exit

specialAttNum.exit:                               ; preds = %30
  %32 = getelementptr inbounds nuw i8, ptr %31, i64 74
  %33 = load i16, ptr %32, align 2
  %34 = sext i16 %33 to i32
  %.not = icmp eq i16 %33, 0
  br i1 %.not, label %specialAttNum.exit.thread, label %37

specialAttNum.exit.thread:                        ; preds = %30, %specialAttNum.exit, %._crit_edge
  br label %37

.loopexit:                                        ; preds = %21
  %35 = trunc nuw nsw i64 %indvars.iv to i32
  %36 = add nuw nsw i32 %35, 1
  br label %37

37:                                               ; preds = %.loopexit, %specialAttNum.exit, %specialAttNum.exit.thread
  %.2 = phi i32 [ 0, %specialAttNum.exit.thread ], [ %34, %specialAttNum.exit ], [ %36, %.loopexit ]
  ret i32 %.2
}